; Function Attrs: mustprogress nofree norecurse nosync nounwind willreturn memory(argmem: read) uwtable
define internal noundef i32 @_ZL7cmp_intPKvS0_(ptr nocapture noundef readonly %0, ptr nocapture noundef readonly %1) #13 {
  %3 = load i32, ptr %0, align 4
  %4 = load i32, ptr %1, align 4
  %5 = icmp slt i32 %3, %4
  %6 = icmp sgt i32 %3, %4
  %. = zext i1 %6 to i32
  %.0 = select i1 %5, i32 -1, i32 %.
  ret i32 %.0
}